target datalayout = "e-m:e-p270:32:32-p271:32:32-p272:64:64-i64:64-i128:128-f80:128-n8:16:32:64-S128"
target triple = "x86_64-pc-linux-gnu"

%struct.cmsysProcess_s = type { ptr, i32, [3 x i32], [3 x i32], i32, [1024 x i8], ptr, i32, double, ptr, i32, i32, i32, i32, i32, %struct.kwsysProcessTime_s, %struct.kwsysProcessTime_s, i32, i32, %struct.fd_set, i32, i32, i32, [1025 x i8], ptr, ptr, ptr, ptr, ptr, i32, i32, i32, [2 x i32], [2 x i32], [2 x i32], i32, ptr }
%struct.kwsysProcessTime_s = type { i64, i64 }
%struct.fd_set = type { [16 x i64] }

; Function Attrs: nounwind uwtable
define dso_local i32 @cmsysProcess_SetCommand(ptr noundef %0, ptr noundef %1) #0 {
  %3 = alloca i32, align 4
  %4 = alloca ptr, align 8
  %5 = alloca ptr, align 8
  %6 = alloca i32, align 4
  %7 = alloca i32, align 4
  %8 = alloca ptr, align 8
  store ptr %0, ptr %4, align 8, !tbaa !4
  store ptr %1, ptr %5, align 8, !tbaa !39
  call void @llvm.lifetime.start.p0(i64 4, ptr %6) #11
  %9 = load ptr, ptr %4, align 8, !tbaa !4
  %10 = icmp ne ptr %9, null
  br i1 %10, label %12, label %11

11:                                               ; preds = %2
  store i32 0, ptr %3, align 4
  store i32 1, ptr %7, align 4
  br label %67

12:                                               ; preds = %2
  store i32 0, ptr %6, align 4, !tbaa !20
  br label %13

13:                                               ; preds = %43, %12
  %14 = load i32, ptr %6, align 4, !tbaa !20
  %15 = load ptr, ptr %4, align 8, !tbaa !4
  %16 = getelementptr inbounds nuw %struct.cmsysProcess_s, ptr %15, i32 0, i32 1
  %17 = load volatile i32, ptr %16, align 8, !tbaa !32
  %18 = icmp slt i32 %14, %17
  br i1 %18, label %19, label %46

19:                                               ; preds = %13
  call void @llvm.lifetime.start.p0(i64 8, ptr %8) #11
  %20 = load ptr, ptr %4, align 8, !tbaa !4
  %21 = getelementptr inbounds nuw %struct.cmsysProcess_s, ptr %20, i32 0, i32 0
  %22 = load ptr, ptr %21, align 8, !tbaa !41
  %23 = load i32, ptr %6, align 4, !tbaa !20
  %24 = sext i32 %23 to i64
  %25 = getelementptr inbounds ptr, ptr %22, i64 %24
  %26 = load ptr, ptr %25, align 8, !tbaa !39
  store ptr %26, ptr %8, align 8, !tbaa !39
  br label %27

27:                                               ; preds = %31, %19
  %28 = load ptr, ptr %8, align 8, !tbaa !39
  %29 = load ptr, ptr %28, align 8, !tbaa !42
  %30 = icmp ne ptr %29, null
  br i1 %30, label %31, label %35

31:                                               ; preds = %27
  %32 = load ptr, ptr %8, align 8, !tbaa !39
  %33 = getelementptr inbounds nuw ptr, ptr %32, i32 1
  store ptr %33, ptr %8, align 8, !tbaa !39
  %34 = load ptr, ptr %32, align 8, !tbaa !42
  call void @free(ptr noundef %34) #11
  br label %27, !llvm.loop !43

35:                                               ; preds = %27
  %36 = load ptr, ptr %4, align 8, !tbaa !4
  %37 = getelementptr inbounds nuw %struct.cmsysProcess_s, ptr %36, i32 0, i32 0
  %38 = load ptr, ptr %37, align 8, !tbaa !41
  %39 = load i32, ptr %6, align 4, !tbaa !20
  %40 = sext i32 %39 to i64
  %41 = getelementptr inbounds ptr, ptr %38, i64 %40
  %42 = load ptr, ptr %41, align 8, !tbaa !39
  call void @free(ptr noundef %42) #11
  call void @llvm.lifetime.end.p0(i64 8, ptr %8) #11
  br label %43

43:                                               ; preds = %35
  %44 = load i32, ptr %6, align 4, !tbaa !20
  %45 = add nsw i32 %44, 1
  store i32 %45, ptr %6, align 4, !tbaa !20
  br label %13, !llvm.loop !44

46:                                               ; preds = %13
  %47 = load ptr, ptr %4, align 8, !tbaa !4
  %48 = getelementptr inbounds nuw %struct.cmsysProcess_s, ptr %47, i32 0, i32 1
  store volatile i32 0, ptr %48, align 8, !tbaa !32
  %49 = load ptr, ptr %4, align 8, !tbaa !4
  %50 = getelementptr inbounds nuw %struct.cmsysProcess_s, ptr %49, i32 0, i32 0
  %51 = load ptr, ptr %50, align 8, !tbaa !41
  %52 = icmp ne ptr %51, null
  br i1 %52, label %53, label %59

53:                                               ; preds = %46
  %54 = load ptr, ptr %4, align 8, !tbaa !4
  %55 = getelementptr inbounds nuw %struct.cmsysProcess_s, ptr %54, i32 0, i32 0
  %56 = load ptr, ptr %55, align 8, !tbaa !41
  call void @free(ptr noundef %56) #11
  %57 = load ptr, ptr %4, align 8, !tbaa !4
  %58 = getelementptr inbounds nuw %struct.cmsysProcess_s, ptr %57, i32 0, i32 0
  store ptr null, ptr %58, align 8, !tbaa !41
  br label %59

59:                                               ; preds = %53, %46
  %60 = load ptr, ptr %5, align 8, !tbaa !39
  %61 = icmp ne ptr %60, null
  br i1 %61, label %62, label %66

62:                                               ; preds = %59
  %63 = load ptr, ptr %4, align 8, !tbaa !4
  %64 = load ptr, ptr %5, align 8, !tbaa !39
  %65 = call i32 @cmsysProcess_AddCommand(ptr noundef %63, ptr noundef %64)
  store i32 %65, ptr %3, align 4
  store i32 1, ptr %7, align 4
  br label %67

66:                                               ; preds = %59
  store i32 1, ptr %3, align 4
  store i32 1, ptr %7, align 4
  br label %67

67:                                               ; preds = %66, %62, %11
  call void @llvm.lifetime.end.p0(i64 4, ptr %6) #11
  %68 = load i32, ptr %3, align 4
  ret i32 %68
}