; Function Attrs: nounwind uwtable
define dso_local range(i32 0, 2) i32 @cmsysProcess_SetCommand(ptr noundef %0, ptr noundef %1) local_unnamed_addr #4 {
  %.not = icmp eq ptr %0, null
  br i1 %.not, label %22, label %.preheader

.preheader:                                       ; preds = %2
  %3 = getelementptr inbounds nuw i8, ptr %0, i64 8
  %4 = load volatile i32, ptr %3, align 8, !tbaa !22
  %5 = icmp sgt i32 %4, 0
  br i1 %5, label %.lr.ph29, label %._crit_edge30

.lr.ph29:                                         ; preds = %.preheader, %._crit_edge
  %indvars.iv = phi i64 [ %indvars.iv.next, %._crit_edge ], [ 0, %.preheader ]
  %6 = load ptr, ptr %0, align 8, !tbaa !23
  %7 = getelementptr inbounds nuw ptr, ptr %6, i64 %indvars.iv
  %8 = load ptr, ptr %7, align 8, !tbaa !24
  %9 = load ptr, ptr %8, align 8, !tbaa !26
  %.not2526 = icmp eq ptr %9, null
  br i1 %.not2526, label %._crit_edge, label %.lr.ph

.lr.ph:                                           ; preds = %.lr.ph29, %.lr.ph
  %10 = phi ptr [ %12, %.lr.ph ], [ %9, %.lr.ph29 ]
  %.027 = phi ptr [ %11, %.lr.ph ], [ %8, %.lr.ph29 ]
  %11 = getelementptr inbounds nuw i8, ptr %.027, i64 8
  tail call void @free(ptr noundef nonnull %10) #25
  %12 = load ptr, ptr %11, align 8, !tbaa !26
  %.not25 = icmp eq ptr %12, null
  br i1 %.not25, label %._crit_edge.loopexit, label %.lr.ph, !llvm.loop !27

._crit_edge.loopexit:                             ; preds = %.lr.ph
  %.pre = load ptr, ptr %0, align 8, !tbaa !23
  %.phi.trans.insert = getelementptr inbounds nuw ptr, ptr %.pre, i64 %indvars.iv
  %.pre32 = load ptr, ptr %.phi.trans.insert, align 8, !tbaa !24
  br label %._crit_edge

._crit_edge:                                      ; preds = %._crit_edge.loopexit, %.lr.ph29
  %13 = phi ptr [ %.pre32, %._crit_edge.loopexit ], [ %8, %.lr.ph29 ]
  tail call void @free(ptr noundef %13) #25
  %indvars.iv.next = add nuw nsw i64 %indvars.iv, 1
  %14 = load volatile i32, ptr %3, align 8, !tbaa !22
  %15 = sext i32 %14 to i64
  %16 = icmp slt i64 %indvars.iv.next, %15
  br i1 %16, label %.lr.ph29, label %._crit_edge30, !llvm.loop !29

._crit_edge30:                                    ; preds = %._crit_edge, %.preheader
  store volatile i32 0, ptr %3, align 8, !tbaa !22
  %17 = load ptr, ptr %0, align 8, !tbaa !23
  %.not23 = icmp eq ptr %17, null
  br i1 %.not23, label %19, label %18

18:                                               ; preds = %._crit_edge30
  tail call void @free(ptr noundef nonnull %17) #25
  store ptr null, ptr %0, align 8, !tbaa !23
  br label %19

19:                                               ; preds = %18, %._crit_edge30
  %.not24 = icmp eq ptr %1, null
  br i1 %.not24, label %22, label %20

20:                                               ; preds = %19
  %21 = tail call i32 @cmsysProcess_AddCommand(ptr noundef nonnull %0, ptr noundef nonnull %1)
  br label %22

22:                                               ; preds = %19, %2, %20
  %.018 = phi i32 [ %21, %20 ], [ 0, %2 ], [ 1, %19 ]
  ret i32 %.018
}